; Function Attrs: nounwind uwtable
define internal ptr @cff_get_ps_name(ptr noundef %0) #4 {
  %2 = getelementptr inbounds i8, ptr %0, i64 1168
  %3 = load ptr, ptr %2, align 8
  %4 = getelementptr inbounds i8, ptr %0, i64 880
  %5 = load ptr, ptr %4, align 8
  %6 = getelementptr inbounds i8, ptr %0, i64 16
  %7 = load i64, ptr %6, align 8
  %8 = and i64 %7, 8
  %9 = icmp ne i64 %8, 0
  %10 = icmp ne ptr %5, null
  %or.cond = select i1 %9, i1 %10, i1 false
  br i1 %or.cond, label %11, label %22

11:                                               ; preds = %1
  %12 = getelementptr inbounds i8, ptr %0, i64 176
  %13 = load ptr, ptr %12, align 8
  %14 = getelementptr inbounds i8, ptr %13, i64 8
  %15 = load ptr, ptr %14, align 8
  %16 = tail call ptr @FT_Get_Module(ptr noundef %15, ptr noundef nonnull @.str.1) #20
  %17 = tail call ptr @ft_module_get_service(ptr noundef %16, ptr noundef nonnull @.str.7, i8 noundef zeroext 0) #20
  %.not = icmp eq ptr %17, null
  br i1 %.not, label %22, label %18

18:                                               ; preds = %11
  %19 = load ptr, ptr %17, align 8
  %.not19 = icmp eq ptr %19, null
  br i1 %.not19, label %22, label %20

20:                                               ; preds = %18
  %21 = tail call ptr %19(ptr noundef nonnull %0) #20
  br label %26

22:                                               ; preds = %11, %18, %1
  %.not20 = icmp eq ptr %3, null
  br i1 %.not20, label %26, label %23

23:                                               ; preds = %22
  %24 = getelementptr inbounds i8, ptr %3, i64 1592
  %25 = load ptr, ptr %24, align 8
  br label %26

26:                                               ; preds = %23, %22, %20
  %.0 = phi ptr [ %21, %20 ], [ %25, %23 ], [ null, %22 ]
  ret ptr %.0
}